; Function Attrs: mustprogress uwtable
define dso_local void @_ZN15cmFileInstaller10ReportCopyERKNSt7__cxx1112basic_stringIcSt11char_traitsIcESaIcEEEN12cmFileCopier4TypeEb(ptr noundef nonnull align 8 dereferenceable(328) %0, ptr noundef nonnull align 8 dereferenceable(32) %1, i32 noundef %2, i1 noundef zeroext %3) unnamed_addr #3 align 2 personality ptr @__gxx_personality_v0 {
  %5 = alloca %"class.std::__cxx11::basic_string", align 8
  %6 = alloca [2 x %"struct.std::pair.183"], align 8
  %7 = alloca %"class.std::__cxx11::basic_string", align 8
  %8 = getelementptr inbounds i8, ptr %0, i64 255
  %9 = load i8, ptr %8, align 1
  %10 = and i8 %9, 1
  %.not = icmp eq i8 %10, 0
  br i1 %.not, label %11, label %28

11:                                               ; preds = %4
  br i1 %3, label %16, label %12

12:                                               ; preds = %11
  %13 = getelementptr inbounds i8, ptr %0, i64 254
  %14 = load i8, ptr %13, align 2
  %15 = and i8 %14, 1
  %.not7 = icmp eq i8 %15, 0
  br i1 %.not7, label %16, label %28

16:                                               ; preds = %12, %11
  %.str.4..str.5 = phi ptr [ @.str.5, %12 ], [ @.str.4, %11 ]
  call void @llvm.lifetime.start.p0(i64 48, ptr nonnull %6)
  store i64 12, ptr %6, align 8, !alias.scope !5, !noalias !8
  %.sroa.2.0..sroa_idx.i.i = getelementptr inbounds i8, ptr %6, i64 8
  store ptr %.str.4..str.5, ptr %.sroa.2.0..sroa_idx.i.i, align 8, !alias.scope !5, !noalias !8
  %17 = getelementptr inbounds i8, ptr %6, i64 16
  store ptr null, ptr %17, align 8, !alias.scope !5, !noalias !8
  %18 = getelementptr inbounds i8, ptr %6, i64 24
  %19 = tail call { i64, ptr } @_ZNKSt7__cxx1112basic_stringIcSt11char_traitsIcESaIcEEcvSt17basic_string_viewIcS2_EEv(ptr noundef nonnull align 8 dereferenceable(32) %1) #17, !noalias !8
  %20 = extractvalue { i64, ptr } %19, 0
  %21 = extractvalue { i64, ptr } %19, 1
  store i64 %20, ptr %18, align 8, !alias.scope !11, !noalias !8
  %.sroa.2.0..sroa_idx.i6.i = getelementptr inbounds i8, ptr %6, i64 32
  store ptr %21, ptr %.sroa.2.0..sroa_idx.i6.i, align 8, !alias.scope !11, !noalias !8
  %22 = getelementptr inbounds i8, ptr %6, i64 40
  store ptr null, ptr %22, align 8, !alias.scope !11, !noalias !8
  call void @_Z10cmCatViewsSt16initializer_listISt4pairISt17basic_string_viewIcSt11char_traitsIcEEPNSt7__cxx1112basic_stringIcS3_SaIcEEEEE(ptr dead_on_unwind nonnull writable sret(%"class.std::__cxx11::basic_string") align 8 %7, ptr nonnull %6, i64 2)
  call void @llvm.lifetime.end.p0(i64 48, ptr nonnull %6)
  %23 = getelementptr inbounds i8, ptr %0, i64 16
  %24 = load ptr, ptr %23, align 8
  invoke void @_ZNK10cmMakefile13DisplayStatusERKNSt7__cxx1112basic_stringIcSt11char_traitsIcESaIcEEEf(ptr noundef nonnull align 8 dereferenceable(3520) %24, ptr noundef nonnull align 8 dereferenceable(32) %7, float noundef -1.000000e+00)
          to label %25 unwind label %26

25:                                               ; preds = %16
  call void @_ZNSt7__cxx1112basic_stringIcSt11char_traitsIcESaIcEED1Ev(ptr noundef nonnull align 8 dereferenceable(32) %7) #17
  br label %28

common.resume:                                    ; preds = %39, %26
  %.sink = phi ptr [ %5, %39 ], [ %7, %26 ]
  %common.resume.op = phi { ptr, i32 } [ %40, %39 ], [ %27, %26 ]
  call void @_ZNSt7__cxx1112basic_stringIcSt11char_traitsIcESaIcEED1Ev(ptr noundef nonnull align 8 dereferenceable(32) %.sink) #17
  resume { ptr, i32 } %common.resume.op

26:                                               ; preds = %16
  %27 = landingpad { ptr, i32 }
          cleanup
  br label %common.resume

28:                                               ; preds = %25, %12, %4
  %.not8 = icmp eq i32 %2, 1
  br i1 %.not8, label %41, label %29

29:                                               ; preds = %28
  call void @llvm.lifetime.start.p0(i64 32, ptr nonnull %5)
  %30 = getelementptr inbounds i8, ptr %0, i64 296
  %31 = call noundef zeroext i1 @_ZNKSt7__cxx1112basic_stringIcSt11char_traitsIcESaIcEE5emptyEv(ptr noundef nonnull align 8 dereferenceable(32) %30) #17
  br i1 %31, label %34, label %32

32:                                               ; preds = %29
  %33 = call noundef nonnull align 8 dereferenceable(32) ptr @_ZNSt7__cxx1112basic_stringIcSt11char_traitsIcESaIcEEpLEPKc(ptr noundef nonnull align 8 dereferenceable(32) %30, ptr noundef nonnull @.str.3)
  br label %34

34:                                               ; preds = %32, %29
  %35 = getelementptr inbounds i8, ptr %0, i64 256
  %36 = load i32, ptr %35, align 8
  %37 = sext i32 %36 to i64
  call void @_ZNKSt7__cxx1112basic_stringIcSt11char_traitsIcESaIcEE6substrEmm(ptr dead_on_unwind nonnull writable sret(%"class.std::__cxx11::basic_string") align 8 %5, ptr noundef nonnull align 8 dereferenceable(32) %1, i64 noundef %37, i64 noundef -1)
  %38 = invoke noundef nonnull align 8 dereferenceable(32) ptr @_ZNSt7__cxx1112basic_stringIcSt11char_traitsIcESaIcEEpLERKS4_(ptr noundef nonnull align 8 dereferenceable(32) %30, ptr noundef nonnull align 8 dereferenceable(32) %5)
          to label %_ZN15cmFileInstaller14ManifestAppendERKNSt7__cxx1112basic_stringIcSt11char_traitsIcESaIcEEE.exit unwind label %39

39:                                               ; preds = %34
  %40 = landingpad { ptr, i32 }
          cleanup
  br label %common.resume

_ZN15cmFileInstaller14ManifestAppendERKNSt7__cxx1112basic_stringIcSt11char_traitsIcESaIcEEE.exit: ; preds = %34
  call void @_ZNSt7__cxx1112basic_stringIcSt11char_traitsIcESaIcEED1Ev(ptr noundef nonnull align 8 dereferenceable(32) %5) #17
  call void @llvm.lifetime.end.p0(i64 32, ptr nonnull %5)
  br label %41

41:                                               ; preds = %_ZN15cmFileInstaller14ManifestAppendERKNSt7__cxx1112basic_stringIcSt11char_traitsIcESaIcEEE.exit, %28
  ret void
}